; Function Attrs: nounwind uwtable
define void @prte_state_base_report_progress(i32 noundef %0, i16 noundef signext %1, ptr noundef %2) local_unnamed_addr #0 {
  fence acquire
  %4 = getelementptr inbounds nuw i8, ptr %2, i64 248
  %5 = load ptr, ptr %4, align 8, !tbaa !39
  %6 = load i32, ptr @prte_clean_output, align 4, !tbaa !31
  %7 = getelementptr inbounds nuw i8, ptr %5, i64 516
  %8 = load i32, ptr %7, align 4, !tbaa !71
  %9 = load i32, ptr getelementptr inbounds nuw (i8, ptr @prte_process_info, i64 792), align 8, !tbaa !82
  %10 = getelementptr inbounds nuw i8, ptr %5, i64 504
  %11 = load i32, ptr %10, align 8, !tbaa !84
  %12 = getelementptr inbounds nuw i8, ptr %5, i64 468
  %13 = load i32, ptr %12, align 4, !tbaa !85
  tail call void (i32, ptr, ...) @pmix_output(i32 noundef %6, ptr noundef nonnull @.str.17, i32 noundef %8, i32 noundef %9, i32 noundef %11, i32 noundef %13) #14
  %14 = tail call i32 @pthread_mutex_lock(ptr noundef %2) #14
  %15 = icmp eq i32 %14, 35
  br i1 %15, label %16, label %pmix_obj_update.exit

16:                                               ; preds = %3
  %17 = tail call ptr @__errno_location() #16
  store i32 35, ptr %17, align 4, !tbaa !31
  tail call void @perror(ptr noundef nonnull @.str.59) #17
  tail call void @abort() #18
  unreachable

pmix_obj_update.exit:                             ; preds = %3
  %18 = getelementptr inbounds nuw i8, ptr %2, i64 48
  %19 = load i32, ptr %18, align 8, !tbaa !34
  %20 = add nsw i32 %19, -1
  store i32 %20, ptr %18, align 8, !tbaa !34
  %21 = tail call i32 @pthread_mutex_unlock(ptr noundef nonnull %2) #14
  %22 = icmp eq i32 %20, 0
  br i1 %22, label %23, label %37

23:                                               ; preds = %pmix_obj_update.exit
  %24 = getelementptr inbounds nuw i8, ptr %2, i64 40
  %25 = load ptr, ptr %24, align 8, !tbaa !33
  %26 = getelementptr inbounds nuw i8, ptr %25, i64 48
  %27 = load ptr, ptr %26, align 8, !tbaa !57
  %28 = load ptr, ptr %27, align 8, !tbaa !36
  %.not6.i = icmp eq ptr %28, null
  br i1 %.not6.i, label %pmix_obj_run_destructors.exit, label %.lr.ph.i

.lr.ph.i:                                         ; preds = %23, %.lr.ph.i
  %29 = phi ptr [ %31, %.lr.ph.i ], [ %28, %23 ]
  %.07.i = phi ptr [ %30, %.lr.ph.i ], [ %27, %23 ]
  tail call void %29(ptr noundef nonnull %2) #14
  %30 = getelementptr inbounds nuw i8, ptr %.07.i, i64 8
  %31 = load ptr, ptr %30, align 8, !tbaa !36
  %.not.i = icmp eq ptr %31, null
  br i1 %.not.i, label %pmix_obj_run_destructors.exit, label %.lr.ph.i, !llvm.loop !58

pmix_obj_run_destructors.exit:                    ; preds = %.lr.ph.i, %23
  %32 = getelementptr inbounds nuw i8, ptr %2, i64 96
  %33 = load ptr, ptr %32, align 8, !tbaa !59
  %.not = icmp eq ptr %33, null
  br i1 %.not, label %36, label %34

34:                                               ; preds = %pmix_obj_run_destructors.exit
  %35 = getelementptr inbounds nuw i8, ptr %2, i64 56
  tail call void %33(ptr noundef nonnull %35, ptr noundef nonnull %2) #14
  br label %37

36:                                               ; preds = %pmix_obj_run_destructors.exit
  tail call void @free(ptr noundef nonnull %2) #14
  br label %37

37:                                               ; preds = %34, %36, %pmix_obj_update.exit
  ret void
}